; Function Attrs: mustprogress nounwind uwtable
define dso_local noundef zeroext i1 @_ZNK5clang13FullSourceLoc16isInSystemHeaderEv(ptr nocapture noundef nonnull readonly align 8 dereferenceable(16) %0) local_unnamed_addr #0 align 2 {
  %.sroa.0.0.copyload = load i32, ptr %0, align 8
  %2 = icmp eq i32 %.sroa.0.0.copyload, 0
  br i1 %2, label %_ZNK5clang13SourceManager16isInSystemHeaderENS_14SourceLocationE.exit, label %3

3:                                                ; preds = %1
  %4 = getelementptr inbounds nuw i8, ptr %0, i64 8
  %5 = load ptr, ptr %4, align 8
  %6 = tail call noundef i32 @_ZNK5clang13SourceManager21getFileCharacteristicENS_14SourceLocationE(ptr noundef nonnull align 8 dereferenceable(696) %5, i32 %.sroa.0.0.copyload) #10
  %7 = icmp ne i32 %6, 0
  %8 = icmp ne i32 %6, 3
  %9 = and i1 %7, %8
  br label %_ZNK5clang13SourceManager16isInSystemHeaderENS_14SourceLocationE.exit

_ZNK5clang13SourceManager16isInSystemHeaderENS_14SourceLocationE.exit: ; preds = %1, %3
  %.0.i = phi i1 [ %9, %3 ], [ false, %1 ]
  ret i1 %.0.i
}